ARM GAS  /tmp/ccpIXYMH.s 			page 1


   1              		.cpu cortex-m7
   2              		.eabi_attribute 28, 1
   3              		.eabi_attribute 20, 1
   4              		.eabi_attribute 21, 1
   5              		.eabi_attribute 23, 3
   6              		.eabi_attribute 24, 1
   7              		.eabi_attribute 25, 1
   8              		.eabi_attribute 26, 1
   9              		.eabi_attribute 30, 2
  10              		.eabi_attribute 34, 1
  11              		.eabi_attribute 18, 4
  12              		.file	"BNO055.cpp"
  13              		.text
  14              	.Ltext0:
  15              		.cfi_sections	.debug_frame
  16              		.section	.text._Z19WriteBNO055Registerhh,"ax",%progbits
  17              		.align	1
  18              		.p2align 2,,3
  19              		.global	_Z19WriteBNO055Registerhh
  20              		.arch armv7e-m
  21              		.syntax unified
  22              		.thumb
  23              		.thumb_func
  24              		.fpu fpv5-d16
  26              	_Z19WriteBNO055Registerhh:
  27              	.LVL0:
  28              	.LFB4681:
  29              		.file 1 "BNO055.cpp"
   1:BNO055.cpp    **** #include "BNO055.h"
   2:BNO055.cpp    **** #include "daisy_seed.h"
   3:BNO055.cpp    **** #include "daisysp.h"
   4:BNO055.cpp    **** 
   5:BNO055.cpp    **** using namespace daisy;
   6:BNO055.cpp    **** using namespace daisysp;
   7:BNO055.cpp    **** 
   8:BNO055.cpp    **** I2CHandle  i2c;
   9:BNO055.cpp    **** 
  10:BNO055.cpp    **** // BNO055 I2C Base Address
  11:BNO055.cpp    **** const uint8_t BNO055_ADDRESS = 0x28;
  12:BNO055.cpp    **** 
  13:BNO055.cpp    **** // BNO055 Register Addresses
  14:BNO055.cpp    **** const uint8_t BNO055_OPR_MODE_ADDR = 0x3D;
  15:BNO055.cpp    **** const uint8_t BNO055_PWR_MODE_ADDR = 0x3E;
  16:BNO055.cpp    **** const uint8_t BNO055_EULER_H_LSB_ADDR = 0x1A;
  17:BNO055.cpp    **** const uint8_t BNO055_PAGE_ID_ADDR = 0x07;
  18:BNO055.cpp    **** 
  19:BNO055.cpp    **** // Operation modes
  20:BNO055.cpp    **** const uint8_t OPERATION_MODE_NDOF = 0x0C;
  21:BNO055.cpp    **** const uint8_t POWER_MODE_NORMAL = 0x00;
  22:BNO055.cpp    **** 
  23:BNO055.cpp    **** 
  24:BNO055.cpp    **** void WriteBNO055Register(uint8_t reg, uint8_t value) {
  30              		.loc 1 24 54 view -0
  31              		.cfi_startproc
  32              		@ args = 0, pretend = 0, frame = 8
  33              		@ frame_needed = 0, uses_anonymous_args = 0
  25:BNO055.cpp    ****     uint8_t buffer[2] = {reg, value};
ARM GAS  /tmp/ccpIXYMH.s 			page 2


  34              		.loc 1 25 5 view .LVU1
  24:BNO055.cpp    ****     uint8_t buffer[2] = {reg, value};
  35              		.loc 1 24 54 is_stmt 0 view .LVU2
  36 0000 10B5     		push	{r4, lr}
  37              		.cfi_def_cfa_offset 8
  38              		.cfi_offset 4, -8
  39              		.cfi_offset 14, -4
  40 0002 84B0     		sub	sp, sp, #16
  41              		.cfi_def_cfa_offset 24
  26:BNO055.cpp    ****     i2c.TransmitBlocking(BNO055_ADDRESS, buffer, 2, 100);
  42              		.loc 1 26 25 view .LVU3
  43 0004 6424     		movs	r4, #100
  44 0006 0223     		movs	r3, #2
  25:BNO055.cpp    ****     uint8_t buffer[2] = {reg, value};
  45              		.loc 1 25 36 view .LVU4
  46 0008 8DF80D10 		strb	r1, [sp, #13]
  47              		.loc 1 26 5 is_stmt 1 view .LVU5
  48              		.loc 1 26 25 is_stmt 0 view .LVU6
  49 000c 03AA     		add	r2, sp, #12
  50 000e 2821     		movs	r1, #40
  51              	.LVL1:
  25:BNO055.cpp    ****     uint8_t buffer[2] = {reg, value};
  52              		.loc 1 25 36 view .LVU7
  53 0010 8DF80C00 		strb	r0, [sp, #12]
  54              		.loc 1 26 25 view .LVU8
  55 0014 0094     		str	r4, [sp]
  56 0016 0248     		ldr	r0, .L4
  57              	.LVL2:
  58              		.loc 1 26 25 view .LVU9
  59 0018 FFF7FEFF 		bl	_ZN5daisy9I2CHandle16TransmitBlockingEtPhtm
  60              	.LVL3:
  27:BNO055.cpp    **** }
  61              		.loc 1 27 1 view .LVU10
  62 001c 04B0     		add	sp, sp, #16
  63              		.cfi_def_cfa_offset 8
  64              		@ sp needed
  65 001e 10BD     		pop	{r4, pc}
  66              	.L5:
  67              		.align	2
  68              	.L4:
  69 0020 00000000 		.word	.LANCHOR0
  70              		.cfi_endproc
  71              	.LFE4681:
  73              		.section	.text._Z18ReadBNO055RegisterhPhh,"ax",%progbits
  74              		.align	1
  75              		.p2align 2,,3
  76              		.global	_Z18ReadBNO055RegisterhPhh
  77              		.syntax unified
  78              		.thumb
  79              		.thumb_func
  80              		.fpu fpv5-d16
  82              	_Z18ReadBNO055RegisterhPhh:
  83              	.LVL4:
  84              	.LFB4682:
  28:BNO055.cpp    **** 
  29:BNO055.cpp    **** void ReadBNO055Register(uint8_t reg, uint8_t arr[], uint8_t size) {
  85              		.loc 1 29 67 is_stmt 1 view -0
ARM GAS  /tmp/ccpIXYMH.s 			page 3


  86              		.cfi_startproc
  87              		@ args = 0, pretend = 0, frame = 8
  88              		@ frame_needed = 0, uses_anonymous_args = 0
  30:BNO055.cpp    ****     i2c.TransmitBlocking(BNO055_ADDRESS, &reg, 1, 100);
  89              		.loc 1 30 5 view .LVU12
  29:BNO055.cpp    ****     i2c.TransmitBlocking(BNO055_ADDRESS, &reg, 1, 100);
  90              		.loc 1 29 67 is_stmt 0 view .LVU13
  91 0000 F0B5     		push	{r4, r5, r6, r7, lr}
  92              		.cfi_def_cfa_offset 20
  93              		.cfi_offset 4, -20
  94              		.cfi_offset 5, -16
  95              		.cfi_offset 6, -12
  96              		.cfi_offset 7, -8
  97              		.cfi_offset 14, -4
  98              		.loc 1 30 25 view .LVU14
  99 0002 0C4F     		ldr	r7, .L8
  29:BNO055.cpp    ****     i2c.TransmitBlocking(BNO055_ADDRESS, &reg, 1, 100);
 100              		.loc 1 29 67 view .LVU15
 101 0004 85B0     		sub	sp, sp, #20
 102              		.cfi_def_cfa_offset 40
 103              		.loc 1 30 25 view .LVU16
 104 0006 6426     		movs	r6, #100
  29:BNO055.cpp    ****     i2c.TransmitBlocking(BNO055_ADDRESS, &reg, 1, 100);
 105              		.loc 1 29 67 view .LVU17
 106 0008 0C46     		mov	r4, r1
 107 000a 1546     		mov	r5, r2
 108 000c 8DF80F00 		strb	r0, [sp, #15]
 109              		.loc 1 30 25 view .LVU18
 110 0010 0DF10F02 		add	r2, sp, #15
 111              	.LVL5:
 112              		.loc 1 30 25 view .LVU19
 113 0014 0123     		movs	r3, #1
 114 0016 2821     		movs	r1, #40
 115              	.LVL6:
 116              		.loc 1 30 25 view .LVU20
 117 0018 3846     		mov	r0, r7
 118              	.LVL7:
 119              		.loc 1 30 25 view .LVU21
 120 001a 0096     		str	r6, [sp]
 121 001c FFF7FEFF 		bl	_ZN5daisy9I2CHandle16TransmitBlockingEtPhtm
 122              	.LVL8:
  31:BNO055.cpp    ****     i2c.ReceiveBlocking(BNO055_ADDRESS, arr, size, 100);
 123              		.loc 1 31 5 is_stmt 1 view .LVU22
 124              		.loc 1 31 24 is_stmt 0 view .LVU23
 125 0020 2B46     		mov	r3, r5
 126 0022 2246     		mov	r2, r4
 127 0024 2821     		movs	r1, #40
 128 0026 3846     		mov	r0, r7
 129 0028 0096     		str	r6, [sp]
 130 002a FFF7FEFF 		bl	_ZN5daisy9I2CHandle15ReceiveBlockingEtPhtm
 131              	.LVL9:
  32:BNO055.cpp    **** }
 132              		.loc 1 32 1 view .LVU24
 133 002e 05B0     		add	sp, sp, #20
 134              		.cfi_def_cfa_offset 20
 135              		@ sp needed
 136 0030 F0BD     		pop	{r4, r5, r6, r7, pc}
ARM GAS  /tmp/ccpIXYMH.s 			page 4


 137              	.LVL10:
 138              	.L9:
 139              		.loc 1 32 1 view .LVU25
 140 0032 00BF     		.align	2
 141              	.L8:
 142 0034 00000000 		.word	.LANCHOR0
 143              		.cfi_endproc
 144              	.LFE4682:
 146              		.section	.text._Z10InitBNO055v,"ax",%progbits
 147              		.align	1
 148              		.p2align 2,,3
 149              		.global	_Z10InitBNO055v
 150              		.syntax unified
 151              		.thumb
 152              		.thumb_func
 153              		.fpu fpv5-d16
 155              	_Z10InitBNO055v:
 156              	.LFB4683:
  33:BNO055.cpp    **** 
  34:BNO055.cpp    **** void InitBNO055() {
 157              		.loc 1 34 19 is_stmt 1 view -0
 158              		.cfi_startproc
 159              		@ args = 0, pretend = 0, frame = 24
 160              		@ frame_needed = 0, uses_anonymous_args = 0
  35:BNO055.cpp    ****     // Configure I2C for BNO055
  36:BNO055.cpp    ****     I2CHandle::Config i2c_conf;
 161              		.loc 1 36 5 view .LVU27
  37:BNO055.cpp    ****     i2c_conf.periph = I2CHandle::Config::Peripheral::I2C_1;
  38:BNO055.cpp    ****     i2c_conf.mode   = I2CHandle::Config::Mode::I2C_MASTER;
  39:BNO055.cpp    ****     i2c_conf.speed  = I2CHandle::Config::Speed::I2C_400KHZ;
  40:BNO055.cpp    ****     i2c_conf.pin_config.scl = seed::D11;
 162              		.loc 1 40 29 is_stmt 0 view .LVU28
 163 0000 2C4A     		ldr	r2, .L14
 164              	.LBB23:
 165              	.LBB24:
 166              		.file 2 "/home/nahomts/Desktop/DaisyExamples/libDaisy/src/per/i2c.h"
   1:/home/nahomts/Desktop/DaisyExamples/libDaisy/src/per/i2c.h **** #pragma once
   2:/home/nahomts/Desktop/DaisyExamples/libDaisy/src/per/i2c.h **** #include "daisy_core.h"
   3:/home/nahomts/Desktop/DaisyExamples/libDaisy/src/per/i2c.h **** 
   4:/home/nahomts/Desktop/DaisyExamples/libDaisy/src/per/i2c.h **** namespace daisy
   5:/home/nahomts/Desktop/DaisyExamples/libDaisy/src/per/i2c.h **** {
   6:/home/nahomts/Desktop/DaisyExamples/libDaisy/src/per/i2c.h **** /** A handle for interacting with an I2C peripheral. This is a dumb
   7:/home/nahomts/Desktop/DaisyExamples/libDaisy/src/per/i2c.h ****  *  gateway that internally points to one of the four I2C peripherals
   8:/home/nahomts/Desktop/DaisyExamples/libDaisy/src/per/i2c.h ****  *  after it was initialised. It can then be copied and passed around.
   9:/home/nahomts/Desktop/DaisyExamples/libDaisy/src/per/i2c.h ****  *  Use an I2CHandle like this:
  10:/home/nahomts/Desktop/DaisyExamples/libDaisy/src/per/i2c.h ****  *  
  11:/home/nahomts/Desktop/DaisyExamples/libDaisy/src/per/i2c.h ****  *      // setup the configuration
  12:/home/nahomts/Desktop/DaisyExamples/libDaisy/src/per/i2c.h ****  *      I2CHandle::Config i2c_conf;
  13:/home/nahomts/Desktop/DaisyExamples/libDaisy/src/per/i2c.h ****  *      i2c_conf.periph = I2CHandle::Config::Peripheral::I2C_1;
  14:/home/nahomts/Desktop/DaisyExamples/libDaisy/src/per/i2c.h ****  *      i2c_conf.speed  = I2CHandle::Config::Speed::I2C_400KHZ;
  15:/home/nahomts/Desktop/DaisyExamples/libDaisy/src/per/i2c.h ****  *      i2c_conf.mode   = I2CHandle::Config::Mode::Master;
  16:/home/nahomts/Desktop/DaisyExamples/libDaisy/src/per/i2c.h ****  *      i2c_conf.pin_config.scl  = {DSY_GPIOB, 8};
  17:/home/nahomts/Desktop/DaisyExamples/libDaisy/src/per/i2c.h ****  *      i2c_conf.pin_config.sda  = {DSY_GPIOB, 9};
  18:/home/nahomts/Desktop/DaisyExamples/libDaisy/src/per/i2c.h ****  *      // initialise the peripheral
  19:/home/nahomts/Desktop/DaisyExamples/libDaisy/src/per/i2c.h ****  *      I2CHandle i2c;
  20:/home/nahomts/Desktop/DaisyExamples/libDaisy/src/per/i2c.h ****  *      i2c.Init(i2c_conf);
  21:/home/nahomts/Desktop/DaisyExamples/libDaisy/src/per/i2c.h ****  *      // now i2c points to the corresponding peripheral and can be used.
ARM GAS  /tmp/ccpIXYMH.s 			page 5


  22:/home/nahomts/Desktop/DaisyExamples/libDaisy/src/per/i2c.h ****  *      i2c.TransmitBlocking( ... );
  23:/home/nahomts/Desktop/DaisyExamples/libDaisy/src/per/i2c.h ****  */
  24:/home/nahomts/Desktop/DaisyExamples/libDaisy/src/per/i2c.h **** class I2CHandle
  25:/home/nahomts/Desktop/DaisyExamples/libDaisy/src/per/i2c.h **** {
  26:/home/nahomts/Desktop/DaisyExamples/libDaisy/src/per/i2c.h ****   public:
  27:/home/nahomts/Desktop/DaisyExamples/libDaisy/src/per/i2c.h ****     /** Contains settings for initialising an I2C interface. */
  28:/home/nahomts/Desktop/DaisyExamples/libDaisy/src/per/i2c.h ****     struct Config
 167              		.loc 2 28 12 view .LVU29
 168 0002 1021     		movs	r1, #16
 169              	.LBE24:
 170              	.LBE23:
  37:BNO055.cpp    ****     i2c_conf.periph = I2CHandle::Config::Peripheral::I2C_1;
 171              		.loc 1 37 21 view .LVU30
 172 0004 0023     		movs	r3, #0
  41:BNO055.cpp    ****     i2c_conf.pin_config.sda = seed::D12;
  42:BNO055.cpp    ****     
  43:BNO055.cpp    ****     // Initialize I2C
  44:BNO055.cpp    ****     if (i2c.Init(i2c_conf) != I2CHandle::Result::OK) {
 173              		.loc 1 44 17 view .LVU31
 174 0006 2C48     		ldr	r0, .L14+4
  34:BNO055.cpp    ****     // Configure I2C for BNO055
 175              		.loc 1 34 19 view .LVU32
 176 0008 70B5     		push	{r4, r5, r6, lr}
 177              		.cfi_def_cfa_offset 16
 178              		.cfi_offset 4, -16
 179              		.cfi_offset 5, -12
 180              		.cfi_offset 6, -8
 181              		.cfi_offset 14, -4
 182 000a 88B0     		sub	sp, sp, #32
 183              		.cfi_def_cfa_offset 48
 184              	.LVL11:
 185              	.LBB26:
 186              	.LBI23:
 187              		.loc 2 28 12 is_stmt 1 view .LVU33
 188              	.LBE26:
  40:BNO055.cpp    ****     i2c_conf.pin_config.sda = seed::D12;
 189              		.loc 1 40 29 is_stmt 0 view .LVU34
 190 000c 1488     		ldrh	r4, [r2]
  39:BNO055.cpp    ****     i2c_conf.pin_config.scl = seed::D11;
 191              		.loc 1 39 21 view .LVU35
 192 000e 0125     		movs	r5, #1
  41:BNO055.cpp    ****     
 193              		.loc 1 41 29 view .LVU36
 194 0010 9288     		ldrh	r2, [r2, #4]
 195              	.LBB27:
 196              	.LBB25:
 197              		.loc 2 28 12 view .LVU37
 198 0012 8DF81C10 		strb	r1, [sp, #28]
 199              	.LVL12:
 200              		.loc 2 28 12 view .LVU38
 201              	.LBE25:
 202              	.LBE27:
  37:BNO055.cpp    ****     i2c_conf.mode   = I2CHandle::Config::Mode::I2C_MASTER;
 203              		.loc 1 37 5 is_stmt 1 view .LVU39
 204              		.loc 1 44 17 is_stmt 0 view .LVU40
 205 0016 03A9     		add	r1, sp, #12
  37:BNO055.cpp    ****     i2c_conf.mode   = I2CHandle::Config::Mode::I2C_MASTER;
ARM GAS  /tmp/ccpIXYMH.s 			page 6


 206              		.loc 1 37 21 view .LVU41
 207 0018 0393     		str	r3, [sp, #12]
  38:BNO055.cpp    ****     i2c_conf.speed  = I2CHandle::Config::Speed::I2C_400KHZ;
 208              		.loc 1 38 5 is_stmt 1 view .LVU42
  38:BNO055.cpp    ****     i2c_conf.speed  = I2CHandle::Config::Speed::I2C_400KHZ;
 209              		.loc 1 38 21 is_stmt 0 view .LVU43
 210 001a 0693     		str	r3, [sp, #24]
  39:BNO055.cpp    ****     i2c_conf.pin_config.scl = seed::D11;
 211              		.loc 1 39 5 is_stmt 1 view .LVU44
  39:BNO055.cpp    ****     i2c_conf.pin_config.scl = seed::D11;
 212              		.loc 1 39 21 is_stmt 0 view .LVU45
 213 001c 0595     		str	r5, [sp, #20]
  40:BNO055.cpp    ****     i2c_conf.pin_config.sda = seed::D12;
 214              		.loc 1 40 5 is_stmt 1 view .LVU46
  40:BNO055.cpp    ****     i2c_conf.pin_config.sda = seed::D12;
 215              		.loc 1 40 29 is_stmt 0 view .LVU47
 216 001e ADF81040 		strh	r4, [sp, #16]	@ movhi
  41:BNO055.cpp    ****     
 217              		.loc 1 41 5 is_stmt 1 view .LVU48
  41:BNO055.cpp    ****     
 218              		.loc 1 41 29 is_stmt 0 view .LVU49
 219 0022 ADF81220 		strh	r2, [sp, #18]	@ movhi
 220              		.loc 1 44 5 is_stmt 1 view .LVU50
 221              		.loc 1 44 17 is_stmt 0 view .LVU51
 222 0026 FFF7FEFF 		bl	_ZN5daisy9I2CHandle4InitERKNS0_6ConfigE
 223              	.LVL13:
 224              		.loc 1 44 5 view .LVU52
 225 002a 00B1     		cbz	r0, .L11
 226              	.L12:
  45:BNO055.cpp    ****         // I2C initialization failed - handle error
  46:BNO055.cpp    ****         while(1);
 227              		.loc 1 46 9 is_stmt 1 discriminator 1 view .LVU53
 228              		.loc 1 46 9 discriminator 1 view .LVU54
 229              		.loc 1 46 9 discriminator 1 view .LVU55
 230              		.loc 1 46 9 discriminator 1 view .LVU56
 231 002c FEE7     		b	.L12
 232              	.L11:
 233              	.LBB28:
 234              	.LBB29:
  26:BNO055.cpp    **** }
 235              		.loc 1 26 25 is_stmt 0 view .LVU57
 236 002e 6425     		movs	r5, #100
 237 0030 0446     		mov	r4, r0
 238              	.LBE29:
 239              	.LBE28:
  47:BNO055.cpp    ****     }
  48:BNO055.cpp    ****     
  49:BNO055.cpp    ****     // Initialize BNO055
  50:BNO055.cpp    ****     System::Delay(100); // Give sensor time to boot
 240              		.loc 1 50 5 is_stmt 1 view .LVU58
 241              	.LBB32:
 242              	.LBB30:
  25:BNO055.cpp    ****     i2c.TransmitBlocking(BNO055_ADDRESS, buffer, 2, 100);
 243              		.loc 1 25 36 is_stmt 0 view .LVU59
 244 0032 3D26     		movs	r6, #61
 245              	.LBE30:
 246              	.LBE32:
ARM GAS  /tmp/ccpIXYMH.s 			page 7


 247              		.loc 1 50 18 view .LVU60
 248 0034 2846     		mov	r0, r5
 249 0036 FFF7FEFF 		bl	_ZN5daisy6System5DelayEm
 250              	.LVL14:
  51:BNO055.cpp    ****     // Set to config mode first
  52:BNO055.cpp    ****     WriteBNO055Register(BNO055_OPR_MODE_ADDR, 0x00);
 251              		.loc 1 52 5 is_stmt 1 view .LVU61
 252              	.LBB33:
 253              	.LBI28:
  24:BNO055.cpp    ****     uint8_t buffer[2] = {reg, value};
 254              		.loc 1 24 6 view .LVU62
 255              	.LBB31:
  25:BNO055.cpp    ****     i2c.TransmitBlocking(BNO055_ADDRESS, buffer, 2, 100);
 256              		.loc 1 25 5 view .LVU63
  26:BNO055.cpp    **** }
 257              		.loc 1 26 25 is_stmt 0 view .LVU64
 258 003a 02AA     		add	r2, sp, #8
 259 003c 0223     		movs	r3, #2
 260 003e 2821     		movs	r1, #40
 261 0040 0095     		str	r5, [sp]
 262 0042 1D48     		ldr	r0, .L14+4
  25:BNO055.cpp    ****     i2c.TransmitBlocking(BNO055_ADDRESS, buffer, 2, 100);
 263              		.loc 1 25 36 view .LVU65
 264 0044 8DF80860 		strb	r6, [sp, #8]
 265 0048 8DF80940 		strb	r4, [sp, #9]
  26:BNO055.cpp    **** }
 266              		.loc 1 26 5 is_stmt 1 view .LVU66
  26:BNO055.cpp    **** }
 267              		.loc 1 26 25 is_stmt 0 view .LVU67
 268 004c FFF7FEFF 		bl	_ZN5daisy9I2CHandle16TransmitBlockingEtPhtm
 269              	.LVL15:
  26:BNO055.cpp    **** }
 270              		.loc 1 26 25 view .LVU68
 271              	.LBE31:
 272              	.LBE33:
  53:BNO055.cpp    ****     System::Delay(30);
 273              		.loc 1 53 5 is_stmt 1 view .LVU69
 274              		.loc 1 53 18 is_stmt 0 view .LVU70
 275 0050 1E20     		movs	r0, #30
 276 0052 FFF7FEFF 		bl	_ZN5daisy6System5DelayEm
 277              	.LVL16:
  54:BNO055.cpp    ****     
  55:BNO055.cpp    ****     // Set to normal power mode
  56:BNO055.cpp    ****     WriteBNO055Register(BNO055_PWR_MODE_ADDR, POWER_MODE_NORMAL);
 278              		.loc 1 56 5 is_stmt 1 view .LVU71
 279              	.LBB34:
 280              	.LBI34:
  24:BNO055.cpp    ****     uint8_t buffer[2] = {reg, value};
 281              		.loc 1 24 6 view .LVU72
 282              	.LBB35:
  25:BNO055.cpp    ****     i2c.TransmitBlocking(BNO055_ADDRESS, buffer, 2, 100);
 283              		.loc 1 25 5 view .LVU73
  25:BNO055.cpp    ****     i2c.TransmitBlocking(BNO055_ADDRESS, buffer, 2, 100);
 284              		.loc 1 25 36 is_stmt 0 view .LVU74
 285 0056 3E23     		movs	r3, #62
  26:BNO055.cpp    **** }
 286              		.loc 1 26 25 view .LVU75
ARM GAS  /tmp/ccpIXYMH.s 			page 8


 287 0058 02AA     		add	r2, sp, #8
 288 005a 2821     		movs	r1, #40
  25:BNO055.cpp    ****     i2c.TransmitBlocking(BNO055_ADDRESS, buffer, 2, 100);
 289              		.loc 1 25 36 view .LVU76
 290 005c 8DF80830 		strb	r3, [sp, #8]
  26:BNO055.cpp    **** }
 291              		.loc 1 26 25 view .LVU77
 292 0060 0223     		movs	r3, #2
 293 0062 0095     		str	r5, [sp]
 294 0064 1448     		ldr	r0, .L14+4
  25:BNO055.cpp    ****     i2c.TransmitBlocking(BNO055_ADDRESS, buffer, 2, 100);
 295              		.loc 1 25 36 view .LVU78
 296 0066 8DF80940 		strb	r4, [sp, #9]
  26:BNO055.cpp    **** }
 297              		.loc 1 26 5 is_stmt 1 view .LVU79
  26:BNO055.cpp    **** }
 298              		.loc 1 26 25 is_stmt 0 view .LVU80
 299 006a FFF7FEFF 		bl	_ZN5daisy9I2CHandle16TransmitBlockingEtPhtm
 300              	.LVL17:
  26:BNO055.cpp    **** }
 301              		.loc 1 26 25 view .LVU81
 302              	.LBE35:
 303              	.LBE34:
  57:BNO055.cpp    ****     System::Delay(10);
 304              		.loc 1 57 5 is_stmt 1 view .LVU82
 305              		.loc 1 57 18 is_stmt 0 view .LVU83
 306 006e 0A20     		movs	r0, #10
 307 0070 FFF7FEFF 		bl	_ZN5daisy6System5DelayEm
 308              	.LVL18:
  58:BNO055.cpp    ****     
  59:BNO055.cpp    ****     // Select page 0
  60:BNO055.cpp    ****     WriteBNO055Register(BNO055_PAGE_ID_ADDR, 0x00);
 309              		.loc 1 60 5 is_stmt 1 view .LVU84
 310              	.LBB36:
 311              	.LBI36:
  24:BNO055.cpp    ****     uint8_t buffer[2] = {reg, value};
 312              		.loc 1 24 6 view .LVU85
 313              	.LBB37:
  25:BNO055.cpp    ****     i2c.TransmitBlocking(BNO055_ADDRESS, buffer, 2, 100);
 314              		.loc 1 25 5 view .LVU86
  25:BNO055.cpp    ****     i2c.TransmitBlocking(BNO055_ADDRESS, buffer, 2, 100);
 315              		.loc 1 25 36 is_stmt 0 view .LVU87
 316 0074 0722     		movs	r2, #7
  26:BNO055.cpp    **** }
 317              		.loc 1 26 25 view .LVU88
 318 0076 0223     		movs	r3, #2
 319 0078 2821     		movs	r1, #40
  25:BNO055.cpp    ****     i2c.TransmitBlocking(BNO055_ADDRESS, buffer, 2, 100);
 320              		.loc 1 25 36 view .LVU89
 321 007a 8DF80820 		strb	r2, [sp, #8]
  26:BNO055.cpp    **** }
 322              		.loc 1 26 25 view .LVU90
 323 007e 02AA     		add	r2, sp, #8
 324 0080 0095     		str	r5, [sp]
 325 0082 0D48     		ldr	r0, .L14+4
  25:BNO055.cpp    ****     i2c.TransmitBlocking(BNO055_ADDRESS, buffer, 2, 100);
 326              		.loc 1 25 36 view .LVU91
ARM GAS  /tmp/ccpIXYMH.s 			page 9


 327 0084 8DF80940 		strb	r4, [sp, #9]
  26:BNO055.cpp    **** }
 328              		.loc 1 26 5 is_stmt 1 view .LVU92
  26:BNO055.cpp    **** }
 329              		.loc 1 26 25 is_stmt 0 view .LVU93
 330 0088 FFF7FEFF 		bl	_ZN5daisy9I2CHandle16TransmitBlockingEtPhtm
 331              	.LVL19:
  26:BNO055.cpp    **** }
 332              		.loc 1 26 25 view .LVU94
 333              	.LBE37:
 334              	.LBE36:
  61:BNO055.cpp    ****     System::Delay(10);
 335              		.loc 1 61 5 is_stmt 1 view .LVU95
 336              		.loc 1 61 18 is_stmt 0 view .LVU96
 337 008c 0A20     		movs	r0, #10
 338 008e FFF7FEFF 		bl	_ZN5daisy6System5DelayEm
 339              	.LVL20:
  62:BNO055.cpp    ****     
  63:BNO055.cpp    ****     // Set to NDOF mode (fusion mode with magnetometer)
  64:BNO055.cpp    ****     WriteBNO055Register(BNO055_OPR_MODE_ADDR, OPERATION_MODE_NDOF);
 340              		.loc 1 64 5 is_stmt 1 view .LVU97
 341              	.LBB38:
 342              	.LBI38:
  24:BNO055.cpp    ****     uint8_t buffer[2] = {reg, value};
 343              		.loc 1 24 6 view .LVU98
 344              	.LBB39:
  25:BNO055.cpp    ****     i2c.TransmitBlocking(BNO055_ADDRESS, buffer, 2, 100);
 345              		.loc 1 25 5 view .LVU99
  25:BNO055.cpp    ****     i2c.TransmitBlocking(BNO055_ADDRESS, buffer, 2, 100);
 346              		.loc 1 25 36 is_stmt 0 view .LVU100
 347 0092 0C21     		movs	r1, #12
  26:BNO055.cpp    **** }
 348              		.loc 1 26 25 view .LVU101
 349 0094 0223     		movs	r3, #2
 350 0096 02AA     		add	r2, sp, #8
  25:BNO055.cpp    ****     i2c.TransmitBlocking(BNO055_ADDRESS, buffer, 2, 100);
 351              		.loc 1 25 36 view .LVU102
 352 0098 8DF80910 		strb	r1, [sp, #9]
  26:BNO055.cpp    **** }
 353              		.loc 1 26 5 is_stmt 1 view .LVU103
  26:BNO055.cpp    **** }
 354              		.loc 1 26 25 is_stmt 0 view .LVU104
 355 009c 2821     		movs	r1, #40
 356 009e 0095     		str	r5, [sp]
 357 00a0 0548     		ldr	r0, .L14+4
  25:BNO055.cpp    ****     i2c.TransmitBlocking(BNO055_ADDRESS, buffer, 2, 100);
 358              		.loc 1 25 36 view .LVU105
 359 00a2 8DF80860 		strb	r6, [sp, #8]
  26:BNO055.cpp    **** }
 360              		.loc 1 26 25 view .LVU106
 361 00a6 FFF7FEFF 		bl	_ZN5daisy9I2CHandle16TransmitBlockingEtPhtm
 362              	.LVL21:
  26:BNO055.cpp    **** }
 363              		.loc 1 26 25 view .LVU107
 364              	.LBE39:
 365              	.LBE38:
  65:BNO055.cpp    ****     System::Delay(20);
ARM GAS  /tmp/ccpIXYMH.s 			page 10


 366              		.loc 1 65 5 is_stmt 1 view .LVU108
 367              		.loc 1 65 18 is_stmt 0 view .LVU109
 368 00aa 1420     		movs	r0, #20
 369 00ac FFF7FEFF 		bl	_ZN5daisy6System5DelayEm
 370              	.LVL22:
  66:BNO055.cpp    **** }
 371              		.loc 1 66 1 view .LVU110
 372 00b0 08B0     		add	sp, sp, #32
 373              		.cfi_def_cfa_offset 16
 374              		@ sp needed
 375 00b2 70BD     		pop	{r4, r5, r6, pc}
 376              	.L15:
 377              		.align	2
 378              	.L14:
 379 00b4 00000000 		.word	.LANCHOR1
 380 00b8 00000000 		.word	.LANCHOR0
 381              		.cfi_endproc
 382              	.LFE4683:
 384              		.section	.text._Z15ReadEulerAnglesv,"ax",%progbits
 385              		.align	1
 386              		.p2align 2,,3
 387              		.global	_Z15ReadEulerAnglesv
 388              		.syntax unified
 389              		.thumb
 390              		.thumb_func
 391              		.fpu fpv5-d16
 393              	_Z15ReadEulerAnglesv:
 394              	.LFB4684:
  67:BNO055.cpp    **** 
  68:BNO055.cpp    **** Angles ReadEulerAngles() {
 395              		.loc 1 68 26 is_stmt 1 view -0
 396              		.cfi_startproc
 397              		@ args = 0, pretend = 0, frame = 40
 398              		@ frame_needed = 0, uses_anonymous_args = 0
  69:BNO055.cpp    ****     uint8_t buffer[6];
 399              		.loc 1 69 5 view .LVU112
  70:BNO055.cpp    ****     uint8_t reg = BNO055_EULER_H_LSB_ADDR;
 400              		.loc 1 70 5 view .LVU113
 401              	.LVL23:
  71:BNO055.cpp    ****     
  72:BNO055.cpp    ****     // Read 6 bytes starting from Euler heading LSB
  73:BNO055.cpp    ****     ReadBNO055Register(reg, buffer, 6);
 402              		.loc 1 73 5 view .LVU114
  68:BNO055.cpp    ****     uint8_t buffer[6];
 403              		.loc 1 68 26 is_stmt 0 view .LVU115
 404 0000 30B5     		push	{r4, r5, lr}
 405              		.cfi_def_cfa_offset 12
 406              		.cfi_offset 4, -12
 407              		.cfi_offset 5, -8
 408              		.cfi_offset 14, -4
 409 0002 1A21     		movs	r1, #26
 410 0004 8DB0     		sub	sp, sp, #52
 411              		.cfi_def_cfa_offset 64
 412              	.LBB42:
 413              	.LBB43:
  30:BNO055.cpp    ****     i2c.ReceiveBlocking(BNO055_ADDRESS, arr, size, 100);
 414              		.loc 1 30 25 view .LVU116
ARM GAS  /tmp/ccpIXYMH.s 			page 11


 415 0006 174D     		ldr	r5, .L18
 416 0008 6424     		movs	r4, #100
 417 000a 09AA     		add	r2, sp, #36
 418 000c 8DF82410 		strb	r1, [sp, #36]
 419              	.LVL24:
  30:BNO055.cpp    ****     i2c.ReceiveBlocking(BNO055_ADDRESS, arr, size, 100);
 420              		.loc 1 30 25 view .LVU117
 421              	.LBE43:
 422              	.LBI42:
  29:BNO055.cpp    ****     i2c.TransmitBlocking(BNO055_ADDRESS, &reg, 1, 100);
 423              		.loc 1 29 6 is_stmt 1 view .LVU118
 424              	.LBB44:
  30:BNO055.cpp    ****     i2c.ReceiveBlocking(BNO055_ADDRESS, arr, size, 100);
 425              		.loc 1 30 5 view .LVU119
  30:BNO055.cpp    ****     i2c.ReceiveBlocking(BNO055_ADDRESS, arr, size, 100);
 426              		.loc 1 30 25 is_stmt 0 view .LVU120
 427 0010 0123     		movs	r3, #1
 428 0012 2821     		movs	r1, #40
 429              	.LVL25:
  30:BNO055.cpp    ****     i2c.ReceiveBlocking(BNO055_ADDRESS, arr, size, 100);
 430              		.loc 1 30 25 view .LVU121
 431 0014 2846     		mov	r0, r5
 432 0016 0094     		str	r4, [sp]
 433 0018 FFF7FEFF 		bl	_ZN5daisy9I2CHandle16TransmitBlockingEtPhtm
 434              	.LVL26:
  31:BNO055.cpp    **** }
 435              		.loc 1 31 5 is_stmt 1 view .LVU122
  31:BNO055.cpp    **** }
 436              		.loc 1 31 24 is_stmt 0 view .LVU123
 437 001c 0623     		movs	r3, #6
 438 001e 07AA     		add	r2, sp, #28
 439              	.LVL27:
  31:BNO055.cpp    **** }
 440              		.loc 1 31 24 view .LVU124
 441 0020 2821     		movs	r1, #40
 442 0022 2846     		mov	r0, r5
 443 0024 0094     		str	r4, [sp]
 444 0026 FFF7FEFF 		bl	_ZN5daisy9I2CHandle15ReceiveBlockingEtPhtm
 445              	.LVL28:
  31:BNO055.cpp    **** }
 446              		.loc 1 31 24 view .LVU125
 447              	.LBE44:
 448              	.LBE42:
  74:BNO055.cpp    ****     
  75:BNO055.cpp    ****     // Separate Angles
  76:BNO055.cpp    ****     int16_t heading_raw = (buffer[1] << 8) | buffer[0];
 449              		.loc 1 76 5 is_stmt 1 view .LVU126
  77:BNO055.cpp    ****     int16_t roll_raw = (buffer[3] << 8) | buffer[2];
 450              		.loc 1 77 5 view .LVU127
  78:BNO055.cpp    ****     int16_t pitch_raw = (buffer[5] << 8) | buffer[4];
 451              		.loc 1 78 5 view .LVU128
  79:BNO055.cpp    ****     
  80:BNO055.cpp    ****     Angles read;
 452              		.loc 1 80 5 view .LVU129
  81:BNO055.cpp    ****     // Convert to degrees
  82:BNO055.cpp    ****     read.euler_heading = heading_raw / 16.0f;
 453              		.loc 1 82 5 view .LVU130
ARM GAS  /tmp/ccpIXYMH.s 			page 12


  83:BNO055.cpp    ****     read.euler_roll = roll_raw / 16.0f;
 454              		.loc 1 83 5 view .LVU131
 455              		.loc 1 83 32 is_stmt 0 view .LVU132
 456 002a BDF91E30 		ldrsh	r3, [sp, #30]
 457 002e DFED0E7A 		vldr.32	s15, .L18+4
 458 0032 00EE903A 		vmov	s1, r3	@ int
  84:BNO055.cpp    ****     read.euler_pitch = pitch_raw / 16.0f;
 459              		.loc 1 84 34 view .LVU133
 460 0036 BDF92030 		ldrsh	r3, [sp, #32]
 461 003a 01EE103A 		vmov	s2, r3	@ int
  82:BNO055.cpp    ****     read.euler_roll = roll_raw / 16.0f;
 462              		.loc 1 82 38 view .LVU134
 463 003e BDF91C30 		ldrsh	r3, [sp, #28]
  83:BNO055.cpp    ****     read.euler_roll = roll_raw / 16.0f;
 464              		.loc 1 83 32 view .LVU135
 465 0042 F8EEE00A 		vcvt.f32.s32	s1, s1
 466              	.LVL29:
 467              		.loc 1 84 5 is_stmt 1 view .LVU136
  82:BNO055.cpp    ****     read.euler_roll = roll_raw / 16.0f;
 468              		.loc 1 82 38 is_stmt 0 view .LVU137
 469 0046 00EE103A 		vmov	s0, r3	@ int
 470              		.loc 1 84 34 view .LVU138
 471 004a B8EEC11A 		vcvt.f32.s32	s2, s2
 472              	.LVL30:
  85:BNO055.cpp    **** 
  86:BNO055.cpp    ****     return read;
 473              		.loc 1 86 5 is_stmt 1 view .LVU139
  82:BNO055.cpp    ****     read.euler_roll = roll_raw / 16.0f;
 474              		.loc 1 82 38 is_stmt 0 view .LVU140
 475 004e B8EEC00A 		vcvt.f32.s32	s0, s0
  87:BNO055.cpp    **** }...
 476              		.loc 1 87 1 view .LVU141
 477 0052 60EEA70A 		vmul.f32	s1, s1, s15
 478 0056 21EE271A 		vmul.f32	s2, s2, s15
 479 005a 20EE270A 		vmul.f32	s0, s0, s15
 480 005e 0DB0     		add	sp, sp, #52
 481              		.cfi_def_cfa_offset 12
 482              		@ sp needed
 483 0060 30BD     		pop	{r4, r5, pc}
 484              	.LVL31:
 485              	.L19:
 486              		.loc 1 87 1 view .LVU142
 487 0062 00BF     		.align	2
 488              	.L18:
 489 0064 00000000 		.word	.LANCHOR0
 490 0068 0000803D 		.word	1031798784
 491              		.cfi_endproc
 492              	.LFE4684:
 494              		.section	.text.startup._GLOBAL__sub_I_i2c,"ax",%progbits
 495              		.align	1
 496              		.p2align 2,,3
 497              		.syntax unified
 498              		.thumb
 499              		.thumb_func
 500              		.fpu fpv5-d16
 502              	_GLOBAL__sub_I_i2c:
 503              	.LFB5247:
ARM GAS  /tmp/ccpIXYMH.s 			page 13


 504              		.loc 1 87 1 is_stmt 1 view -0
 505              		.cfi_startproc
 506              		@ args = 0, pretend = 0, frame = 0
 507              		@ frame_needed = 0, uses_anonymous_args = 0
 508              		@ link register save eliminated.
 509              	.LVL32:
 510              	.LBB45:
 511              	.LBI45:
 512              		.loc 1 87 1 view .LVU144
 513              	.LBB46:
 514              	.LBB47:
 515              	.LBI47:
  29:/home/nahomts/Desktop/DaisyExamples/libDaisy/src/per/i2c.h ****     {
  30:/home/nahomts/Desktop/DaisyExamples/libDaisy/src/per/i2c.h ****         /** Specifies whether the interface will operate in master or slave mode. */
  31:/home/nahomts/Desktop/DaisyExamples/libDaisy/src/per/i2c.h ****         enum class Mode
  32:/home/nahomts/Desktop/DaisyExamples/libDaisy/src/per/i2c.h ****         {
  33:/home/nahomts/Desktop/DaisyExamples/libDaisy/src/per/i2c.h ****             I2C_MASTER,
  34:/home/nahomts/Desktop/DaisyExamples/libDaisy/src/per/i2c.h ****             I2C_SLAVE,
  35:/home/nahomts/Desktop/DaisyExamples/libDaisy/src/per/i2c.h ****         };
  36:/home/nahomts/Desktop/DaisyExamples/libDaisy/src/per/i2c.h **** 
  37:/home/nahomts/Desktop/DaisyExamples/libDaisy/src/per/i2c.h ****         /** Specifices the internal peripheral to use (these are mapped to different pins on the ha
  38:/home/nahomts/Desktop/DaisyExamples/libDaisy/src/per/i2c.h ****         enum class Peripheral
  39:/home/nahomts/Desktop/DaisyExamples/libDaisy/src/per/i2c.h ****         {
  40:/home/nahomts/Desktop/DaisyExamples/libDaisy/src/per/i2c.h ****             I2C_1 = 0, /**< & */
  41:/home/nahomts/Desktop/DaisyExamples/libDaisy/src/per/i2c.h ****             I2C_2,     /**< & */
  42:/home/nahomts/Desktop/DaisyExamples/libDaisy/src/per/i2c.h ****             I2C_3,     /**< & */
  43:/home/nahomts/Desktop/DaisyExamples/libDaisy/src/per/i2c.h ****             I2C_4,     /**< & */
  44:/home/nahomts/Desktop/DaisyExamples/libDaisy/src/per/i2c.h ****         };
  45:/home/nahomts/Desktop/DaisyExamples/libDaisy/src/per/i2c.h **** 
  46:/home/nahomts/Desktop/DaisyExamples/libDaisy/src/per/i2c.h ****         /** Rate at which the clock/data will be sent/received. The device being used will have max
  47:/home/nahomts/Desktop/DaisyExamples/libDaisy/src/per/i2c.h ****          *  1MHZ Mode is currently 886kHz
  48:/home/nahomts/Desktop/DaisyExamples/libDaisy/src/per/i2c.h ****          */
  49:/home/nahomts/Desktop/DaisyExamples/libDaisy/src/per/i2c.h ****         enum class Speed
  50:/home/nahomts/Desktop/DaisyExamples/libDaisy/src/per/i2c.h ****         {
  51:/home/nahomts/Desktop/DaisyExamples/libDaisy/src/per/i2c.h ****             I2C_100KHZ, /**< & */
  52:/home/nahomts/Desktop/DaisyExamples/libDaisy/src/per/i2c.h ****             I2C_400KHZ, /**< & */
  53:/home/nahomts/Desktop/DaisyExamples/libDaisy/src/per/i2c.h ****             I2C_1MHZ,   /**< & */
  54:/home/nahomts/Desktop/DaisyExamples/libDaisy/src/per/i2c.h ****         };
  55:/home/nahomts/Desktop/DaisyExamples/libDaisy/src/per/i2c.h **** 
  56:/home/nahomts/Desktop/DaisyExamples/libDaisy/src/per/i2c.h ****         Peripheral periph; /**< & */
  57:/home/nahomts/Desktop/DaisyExamples/libDaisy/src/per/i2c.h ****         struct
  58:/home/nahomts/Desktop/DaisyExamples/libDaisy/src/per/i2c.h ****         {
  59:/home/nahomts/Desktop/DaisyExamples/libDaisy/src/per/i2c.h ****             dsy_gpio_pin scl; /**< & */
  60:/home/nahomts/Desktop/DaisyExamples/libDaisy/src/per/i2c.h ****             dsy_gpio_pin sda; /**< & */
  61:/home/nahomts/Desktop/DaisyExamples/libDaisy/src/per/i2c.h ****         } pin_config;         /**< & */
  62:/home/nahomts/Desktop/DaisyExamples/libDaisy/src/per/i2c.h **** 
  63:/home/nahomts/Desktop/DaisyExamples/libDaisy/src/per/i2c.h ****         Speed speed; /**< & */
  64:/home/nahomts/Desktop/DaisyExamples/libDaisy/src/per/i2c.h ****         Mode  mode;  /**< & */
  65:/home/nahomts/Desktop/DaisyExamples/libDaisy/src/per/i2c.h ****         // 0x10 is chosen as a default to avoid conflicts with reserved addresses
  66:/home/nahomts/Desktop/DaisyExamples/libDaisy/src/per/i2c.h ****         uint8_t address = 0x10; /**< & */
  67:/home/nahomts/Desktop/DaisyExamples/libDaisy/src/per/i2c.h ****     };
  68:/home/nahomts/Desktop/DaisyExamples/libDaisy/src/per/i2c.h **** 
  69:/home/nahomts/Desktop/DaisyExamples/libDaisy/src/per/i2c.h ****     /** Return values for I2C functions. */
  70:/home/nahomts/Desktop/DaisyExamples/libDaisy/src/per/i2c.h ****     enum class Result
  71:/home/nahomts/Desktop/DaisyExamples/libDaisy/src/per/i2c.h ****     {
  72:/home/nahomts/Desktop/DaisyExamples/libDaisy/src/per/i2c.h ****         OK, /**< & */
  73:/home/nahomts/Desktop/DaisyExamples/libDaisy/src/per/i2c.h ****         ERR /**< & */
ARM GAS  /tmp/ccpIXYMH.s 			page 14


  74:/home/nahomts/Desktop/DaisyExamples/libDaisy/src/per/i2c.h ****     };
  75:/home/nahomts/Desktop/DaisyExamples/libDaisy/src/per/i2c.h **** 
  76:/home/nahomts/Desktop/DaisyExamples/libDaisy/src/per/i2c.h ****     enum class Direction
  77:/home/nahomts/Desktop/DaisyExamples/libDaisy/src/per/i2c.h ****     {
  78:/home/nahomts/Desktop/DaisyExamples/libDaisy/src/per/i2c.h ****         TRANSMIT, /**< & */
  79:/home/nahomts/Desktop/DaisyExamples/libDaisy/src/per/i2c.h ****         RECEIVE,  /**< & */
  80:/home/nahomts/Desktop/DaisyExamples/libDaisy/src/per/i2c.h ****     };
  81:/home/nahomts/Desktop/DaisyExamples/libDaisy/src/per/i2c.h **** 
  82:/home/nahomts/Desktop/DaisyExamples/libDaisy/src/per/i2c.h ****     I2CHandle() : pimpl_(nullptr) {}
 516              		.loc 2 82 5 view .LVU145
 517              	.LBB48:
 518              	.LBB49:
 519              		.loc 2 82 33 is_stmt 0 view .LVU146
 520 0000 014B     		ldr	r3, .L21
 521 0002 0022     		movs	r2, #0
 522 0004 1A60     		str	r2, [r3]
 523              	.LVL33:
 524              		.loc 2 82 33 view .LVU147
 525              	.LBE49:
 526              	.LBE48:
 527              	.LBE47:
 528              	.LBE46:
 529              	.LBE45:
 530              		.loc 1 87 1 view .LVU148
 531 0006 7047     		bx	lr
 532              	.L22:
 533              		.align	2
 534              	.L21:
 535 0008 00000000 		.word	.LANCHOR0
 536              		.cfi_endproc
 537              	.LFE5247:
 539              		.section	.init_array,"aw",%init_array
 540              		.align	2
 541 0000 00000000 		.word	_GLOBAL__sub_I_i2c(target1)
 542              		.global	i2c
 543              		.section	.rodata
 544              		.align	2
 545              		.set	.LANCHOR1,. + 0
 546              	.LC0:
 547 0000 01       		.byte	1
 548 0001 08       		.byte	8
 549 0002 0000     		.space	2
 550              	.LC1:
 551 0004 01       		.byte	1
 552 0005 09       		.byte	9
 553              		.section	.bss.i2c,"aw",%nobits
 554              		.align	2
 555              		.set	.LANCHOR0,. + 0
 558              	i2c:
 559 0000 00000000 		.space	4
 560              		.text
 561              	.Letext0:
 562              		.file 3 "/home/nahomts/Developer/gcc-arm-none-eabi-10-2020-q4-major/arm-none-eabi/include/machine/
 563              		.file 4 "/home/nahomts/Developer/gcc-arm-none-eabi-10-2020-q4-major/arm-none-eabi/include/sys/_std
 564              		.file 5 "/home/nahomts/Developer/gcc-arm-none-eabi-10-2020-q4-major/arm-none-eabi/include/stdint.h
 565              		.file 6 "/home/nahomts/Developer/gcc-arm-none-eabi-10-2020-q4-major/lib/gcc/arm-none-eabi/10.2.1/i
 566              		.file 7 "/home/nahomts/Developer/gcc-arm-none-eabi-10-2020-q4-major/arm-none-eabi/include/c++/10.2
ARM GAS  /tmp/ccpIXYMH.s 			page 15


 567              		.file 8 "/home/nahomts/Developer/gcc-arm-none-eabi-10-2020-q4-major/arm-none-eabi/include/c++/10.2
 568              		.file 9 "/home/nahomts/Developer/gcc-arm-none-eabi-10-2020-q4-major/arm-none-eabi/include/c++/10.2
 569              		.file 10 "/home/nahomts/Developer/gcc-arm-none-eabi-10-2020-q4-major/arm-none-eabi/include/c++/10.
 570              		.file 11 "/home/nahomts/Developer/gcc-arm-none-eabi-10-2020-q4-major/arm-none-eabi/include/c++/10.
 571              		.file 12 "/home/nahomts/Developer/gcc-arm-none-eabi-10-2020-q4-major/arm-none-eabi/include/c++/10.
 572              		.file 13 "/home/nahomts/Developer/gcc-arm-none-eabi-10-2020-q4-major/arm-none-eabi/include/c++/10.
 573              		.file 14 "/home/nahomts/Developer/gcc-arm-none-eabi-10-2020-q4-major/arm-none-eabi/include/c++/10.
 574              		.file 15 "/home/nahomts/Developer/gcc-arm-none-eabi-10-2020-q4-major/arm-none-eabi/include/c++/10.
 575              		.file 16 "/home/nahomts/Developer/gcc-arm-none-eabi-10-2020-q4-major/arm-none-eabi/include/c++/10.
 576              		.file 17 "/home/nahomts/Developer/gcc-arm-none-eabi-10-2020-q4-major/arm-none-eabi/include/c++/10.
 577              		.file 18 "/home/nahomts/Developer/gcc-arm-none-eabi-10-2020-q4-major/arm-none-eabi/include/c++/10.
 578              		.file 19 "/home/nahomts/Developer/gcc-arm-none-eabi-10-2020-q4-major/arm-none-eabi/include/c++/10.
 579              		.file 20 "/home/nahomts/Developer/gcc-arm-none-eabi-10-2020-q4-major/arm-none-eabi/include/c++/10.
 580              		.file 21 "/home/nahomts/Developer/gcc-arm-none-eabi-10-2020-q4-major/arm-none-eabi/include/c++/10.
 581              		.file 22 "/home/nahomts/Developer/gcc-arm-none-eabi-10-2020-q4-major/arm-none-eabi/include/c++/10.
 582              		.file 23 "/home/nahomts/Developer/gcc-arm-none-eabi-10-2020-q4-major/arm-none-eabi/include/c++/10.
 583              		.file 24 "/home/nahomts/Developer/gcc-arm-none-eabi-10-2020-q4-major/arm-none-eabi/include/c++/10.
 584              		.file 25 "/home/nahomts/Developer/gcc-arm-none-eabi-10-2020-q4-major/arm-none-eabi/include/sys/_ty
 585              		.file 26 "/home/nahomts/Developer/gcc-arm-none-eabi-10-2020-q4-major/arm-none-eabi/include/sys/ree
 586              		.file 27 "/home/nahomts/Developer/gcc-arm-none-eabi-10-2020-q4-major/arm-none-eabi/include/sys/loc
 587              		.file 28 "/home/nahomts/Developer/gcc-arm-none-eabi-10-2020-q4-major/arm-none-eabi/include/math.h"
 588              		.file 29 "/home/nahomts/Developer/gcc-arm-none-eabi-10-2020-q4-major/arm-none-eabi/include/stdlib.
 589              		.file 30 "/home/nahomts/Developer/gcc-arm-none-eabi-10-2020-q4-major/arm-none-eabi/include/c++/10.
 590              		.file 31 "/home/nahomts/Developer/gcc-arm-none-eabi-10-2020-q4-major/arm-none-eabi/include/c++/10.
 591              		.file 32 "/home/nahomts/Desktop/DaisyExamples/libDaisy/src/daisy_core.h"
 592              		.file 33 "/home/nahomts/Desktop/DaisyExamples/libDaisy/src/per/tim.h"
 593              		.file 34 "/home/nahomts/Desktop/DaisyExamples/libDaisy/src/sys/system.h"
 594              		.file 35 "/home/nahomts/Desktop/DaisyExamples/libDaisy/src/util/wav_format.h"
 595              		.file 36 "/home/nahomts/Desktop/DaisyExamples/libDaisy/src/dev/max11300.h"
 596              		.file 37 "/home/nahomts/Desktop/DaisyExamples/libDaisy/src/daisy_seed.h"
 597              		.file 38 "/home/nahomts/Developer/gcc-arm-none-eabi-10-2020-q4-major/lib/gcc/arm-none-eabi/10.2.1/
 598              		.file 39 "/home/nahomts/Developer/gcc-arm-none-eabi-10-2020-q4-major/arm-none-eabi/include/stdio.h
 599              		.file 40 "/home/nahomts/Developer/gcc-arm-none-eabi-10-2020-q4-major/arm-none-eabi/include/string.
 600              		.file 41 "/home/nahomts/Desktop/DaisyExamples/DaisySP/Source/Control/adenv.h"
 601              		.file 42 "/home/nahomts/Desktop/DaisyExamples/DaisySP/Source/Utility/dsp.h"
 602              		.file 43 "/home/nahomts/Developer/gcc-arm-none-eabi-10-2020-q4-major/arm-none-eabi/include/wchar.h
 603              		.file 44 "/home/nahomts/Developer/gcc-arm-none-eabi-10-2020-q4-major/arm-none-eabi/include/locale.
 604              		.file 45 "BNO055.h"
 605              		.file 46 "/home/nahomts/Desktop/DaisyExamples/libDaisy/src/dev/sr_595.h"
 606              		.file 47 "<built-in>"
ARM GAS  /tmp/ccpIXYMH.s 			page 16

